target datalayout = "e-m:e-p270:32:32-p271:32:32-p272:64:64-i64:64-i128:128-f80:128-n8:16:32:64-S128"
target triple = "x86_64-pc-linux-gnu"

%struct._object = type { %union.anon, ptr }
%union.anon = type { i64 }
%struct.PyMutex = type { i8 }
%struct._queues = type { ptr, ptr, i64, i64 }
%struct.idarg_int64_converter_data = type { ptr, i64 }
%struct.globals = type { %struct.PyMutex, i32, %struct._queues }
%struct._queueref = type { ptr, i64, i64, ptr }
%struct.anon = type { i32, i32 }
%struct._xidata = type { ptr, ptr, i64, ptr, ptr }
%struct._ts = type { ptr, ptr, ptr, i64, %struct.anon.1, i32, i32, i32, i32, i32, i32, i32, i32, ptr, ptr, ptr, ptr, ptr, ptr, ptr, ptr, i32, ptr, i64, i64, ptr, i64, i32, ptr, ptr, ptr, i64, i64, ptr, ptr, ptr, %struct._err_stackitem, ptr, i64, ptr, ptr }
%struct.anon.1 = type { i32 }
%struct._err_stackitem = type { ptr, ptr }
%struct._queueid_xid = type { i64 }

@_globals = internal global { %struct.PyMutex, [3 x i8], i32, %struct._queues } zeroinitializer, align 8
@.str.55 = private unnamed_addr constant [4 x i8] c"_id\00", align 1
@__const._queueobj_shared.converted = private unnamed_addr constant %struct.idarg_int64_converter_data { ptr @.str.30, i64 0 }, align 8

; Function Attrs: nounwind uwtable
define internal ptr @_queuerefs_find(ptr noundef %0, i64 noundef %1, ptr noundef %2) #0 {
  %4 = alloca ptr, align 8
  %5 = alloca i64, align 8
  %6 = alloca ptr, align 8
  %7 = alloca ptr, align 8
  %8 = alloca ptr, align 8
  store ptr %0, ptr %4, align 8, !tbaa !50
  store i64 %1, ptr %5, align 8, !tbaa !11
  store ptr %2, ptr %6, align 8, !tbaa !77
  call void @llvm.lifetime.start.p0(i64 8, ptr %7) #8
  store ptr null, ptr %7, align 8, !tbaa !50
  call void @llvm.lifetime.start.p0(i64 8, ptr %8) #8
  %9 = load ptr, ptr %4, align 8, !tbaa !50
  store ptr %9, ptr %8, align 8, !tbaa !50
  br label %10

10:                                               ; preds = %20, %3
  %11 = load ptr, ptr %8, align 8, !tbaa !50
  %12 = icmp ne ptr %11, null
  br i1 %12, label %13, label %25

13:                                               ; preds = %10
  %14 = load ptr, ptr %8, align 8, !tbaa !50
  %15 = getelementptr inbounds nuw %struct._queueref, ptr %14, i32 0, i32 1
  %16 = load i64, ptr %15, align 8, !tbaa !53
  %17 = load i64, ptr %5, align 8, !tbaa !11
  %18 = icmp eq i64 %16, %17
  br i1 %18, label %19, label %20

19:                                               ; preds = %13
  br label %25

20:                                               ; preds = %13
  %21 = load ptr, ptr %8, align 8, !tbaa !50
  store ptr %21, ptr %7, align 8, !tbaa !50
  %22 = load ptr, ptr %8, align 8, !tbaa !50
  %23 = getelementptr inbounds nuw %struct._queueref, ptr %22, i32 0, i32 0
  %24 = load ptr, ptr %23, align 8, !tbaa !51
  store ptr %24, ptr %8, align 8, !tbaa !50
  br label %10, !llvm.loop !79

25:                                               ; preds = %19, %10
  %26 = load ptr, ptr %6, align 8, !tbaa !77
  %27 = icmp ne ptr %26, null
  br i1 %27, label %28, label %31

28:                                               ; preds = %25
  %29 = load ptr, ptr %7, align 8, !tbaa !50
  %30 = load ptr, ptr %6, align 8, !tbaa !77
  store ptr %29, ptr %30, align 8, !tbaa !50
  br label %31

31:                                               ; preds = %28, %25
  %32 = load ptr, ptr %8, align 8, !tbaa !50
  call void @llvm.lifetime.end.p0(i64 8, ptr %8) #8
  call void @llvm.lifetime.end.p0(i64 8, ptr %7) #8
  ret ptr %32
}

; Function Attrs: nounwind uwtable
define internal i32 @_queues_incref(ptr noundef %0, i64 noundef %1) #0 {
  %3 = alloca ptr, align 8
  %4 = alloca i64, align 8
  %5 = alloca i32, align 4
  %6 = alloca ptr, align 8
  store ptr %0, ptr %3, align 8, !tbaa !39
  store i64 %1, ptr %4, align 8, !tbaa !11
  call void @llvm.lifetime.start.p0(i64 4, ptr %5) #8
  store i32 -1, ptr %5, align 4, !tbaa !9
  %7 = load ptr, ptr %3, align 8, !tbaa !39
  %8 = getelementptr inbounds nuw %struct._queues, ptr %7, i32 0, i32 0
  %9 = load ptr, ptr %8, align 8, !tbaa !49
  %10 = call i32 @PyThread_acquire_lock(ptr noundef %9, i32 noundef 1)
  call void @llvm.lifetime.start.p0(i64 8, ptr %6) #8
  %11 = load ptr, ptr %3, align 8, !tbaa !39
  %12 = getelementptr inbounds nuw %struct._queues, ptr %11, i32 0, i32 1
  %13 = load ptr, ptr %12, align 8, !tbaa !57
  %14 = load i64, ptr %4, align 8, !tbaa !11
  %15 = call ptr @_queuerefs_find(ptr noundef %13, i64 noundef %14, ptr noundef null)
  store ptr %15, ptr %6, align 8, !tbaa !50
  %16 = load ptr, ptr %6, align 8, !tbaa !50
  %17 = icmp eq ptr %16, null
  br i1 %17, label %18, label %19

18:                                               ; preds = %2
  store i32 -14, ptr %5, align 4, !tbaa !9
  br label %24

19:                                               ; preds = %2
  %20 = load ptr, ptr %6, align 8, !tbaa !50
  %21 = getelementptr inbounds nuw %struct._queueref, ptr %20, i32 0, i32 2
  %22 = load i64, ptr %21, align 8, !tbaa !54
  %23 = add i64 %22, 1
  store i64 %23, ptr %21, align 8, !tbaa !54
  store i32 0, ptr %5, align 4, !tbaa !9
  br label %24

24:                                               ; preds = %19, %18
  %25 = load ptr, ptr %3, align 8, !tbaa !39
  %26 = getelementptr inbounds nuw %struct._queues, ptr %25, i32 0, i32 0
  %27 = load ptr, ptr %26, align 8, !tbaa !49
  call void @PyThread_release_lock(ptr noundef %27)
  %28 = load i32, ptr %5, align 4, !tbaa !9
  call void @llvm.lifetime.end.p0(i64 8, ptr %6) #8
  call void @llvm.lifetime.end.p0(i64 4, ptr %5) #8
  ret i32 %28
}

; Function Attrs: nounwind uwtable
define internal ptr @_get_global_queues() #0 {
  ret ptr getelementptr inbounds nuw (%struct.globals, ptr @_globals, i32 0, i32 2)
}

; Function Attrs: alwaysinline nounwind uwtable
define internal i32 @_Py_IsImmortal(ptr noundef %0) #6 {
  %2 = alloca ptr, align 8
  store ptr %0, ptr %2, align 8, !tbaa !3
  %3 = load ptr, ptr %2, align 8, !tbaa !3
  %4 = getelementptr inbounds nuw %struct._object, ptr %3, i32 0, i32 0
  %5 = getelementptr inbounds nuw %struct.anon, ptr %4, i32 0, i32 0
  %6 = load i32, ptr %5, align 8, !tbaa !73
  %7 = icmp slt i32 %6, 0
  %8 = zext i1 %7 to i32
  ret i32 %8
}

; Function Attrs: nounwind uwtable
define internal ptr @_queueid_xid_new(i64 noundef %0) #0 {
  %2 = alloca ptr, align 8
  %3 = alloca i64, align 8
  %4 = alloca ptr, align 8
  %5 = alloca i32, align 4
  %6 = alloca ptr, align 8
  store i64 %0, ptr %3, align 8, !tbaa !11
  call void @llvm.lifetime.start.p0(i64 8, ptr %4) #8
  %7 = call ptr @_get_global_queues()
  store ptr %7, ptr %4, align 8, !tbaa !39
  %8 = load ptr, ptr %4, align 8, !tbaa !39
  %9 = load i64, ptr %3, align 8, !tbaa !11
  %10 = call i32 @_queues_incref(ptr noundef %8, i64 noundef %9)
  %11 = icmp slt i32 %10, 0
  br i1 %11, label %12, label %13

12:                                               ; preds = %1
  store ptr null, ptr %2, align 8
  store i32 1, ptr %5, align 4
  br label %27

13:                                               ; preds = %1
  call void @llvm.lifetime.start.p0(i64 8, ptr %6) #8
  %14 = call ptr @PyMem_RawMalloc(i64 noundef 8)
  store ptr %14, ptr %6, align 8, !tbaa !128
  %15 = load ptr, ptr %6, align 8, !tbaa !128
  %16 = icmp eq ptr %15, null
  br i1 %16, label %17, label %21

17:                                               ; preds = %13
  %18 = load ptr, ptr %4, align 8, !tbaa !39
  %19 = load i64, ptr %3, align 8, !tbaa !11
  %20 = call i32 @_queues_decref(ptr noundef %18, i64 noundef %19)
  store ptr null, ptr %2, align 8
  store i32 1, ptr %5, align 4
  br label %26

21:                                               ; preds = %13
  %22 = load i64, ptr %3, align 8, !tbaa !11
  %23 = load ptr, ptr %6, align 8, !tbaa !128
  %24 = getelementptr inbounds nuw %struct._queueid_xid, ptr %23, i32 0, i32 0
  store i64 %22, ptr %24, align 8, !tbaa !130
  %25 = load ptr, ptr %6, align 8, !tbaa !128
  store ptr %25, ptr %2, align 8
  store i32 1, ptr %5, align 4
  br label %26

26:                                               ; preds = %21, %17
  call void @llvm.lifetime.end.p0(i64 8, ptr %6) #8
  br label %27

27:                                               ; preds = %26, %12
  call void @llvm.lifetime.end.p0(i64 8, ptr %4) #8
  %28 = load ptr, ptr %2, align 8
  ret ptr %28
}

; Function Attrs: alwaysinline nounwind uwtable
define internal void @Py_DECREF(ptr noundef %0) #6 {
  %2 = alloca ptr, align 8
  store ptr %0, ptr %2, align 8, !tbaa !3
  %3 = load ptr, ptr %2, align 8, !tbaa !3
  %4 = call i32 @_Py_IsImmortal(ptr noundef %3)
  %5 = icmp ne i32 %4, 0
  br i1 %5, label %6, label %7

6:                                                ; preds = %1
  br label %16

7:                                                ; preds = %1
  %8 = load ptr, ptr %2, align 8, !tbaa !3
  %9 = getelementptr inbounds nuw %struct._object, ptr %8, i32 0, i32 0
  %10 = getelementptr inbounds nuw %struct.anon, ptr %9, i32 0, i32 0
  %11 = load i32, ptr %10, align 8, !tbaa !73
  %12 = add i32 %11, -1
  store i32 %12, ptr %10, align 8, !tbaa !73
  %13 = icmp eq i32 %12, 0
  br i1 %13, label %14, label %16

14:                                               ; preds = %7
  %15 = load ptr, ptr %2, align 8, !tbaa !3
  call void @_Py_Dealloc(ptr noundef %15)
  br label %16

16:                                               ; preds = %6, %14, %7
  ret void
}

; Function Attrs: nounwind uwtable
define internal i32 @_queueobj_shared(ptr noundef %0, ptr noundef %1, ptr noundef %2) #0 {
  %4 = alloca i32, align 4
  %5 = alloca ptr, align 8
  %6 = alloca ptr, align 8
  %7 = alloca ptr, align 8
  %8 = alloca ptr, align 8
  %9 = alloca i32, align 4
  %10 = alloca %struct.idarg_int64_converter_data, align 8
  %11 = alloca i32, align 4
  %12 = alloca ptr, align 8
  %13 = alloca ptr, align 8
  %14 = alloca ptr, align 8
  store ptr %0, ptr %5, align 8, !tbaa !118
  store ptr %1, ptr %6, align 8, !tbaa !3
  store ptr %2, ptr %7, align 8, !tbaa !66
  call void @llvm.lifetime.start.p0(i64 8, ptr %8) #8
  %15 = load ptr, ptr %6, align 8, !tbaa !3
  %16 = call ptr @PyObject_GetAttrString(ptr noundef %15, ptr noundef @.str.55)
  store ptr %16, ptr %8, align 8, !tbaa !3
  %17 = load ptr, ptr %8, align 8, !tbaa !3
  %18 = icmp eq ptr %17, null
  br i1 %18, label %19, label %20

19:                                               ; preds = %3
  store i32 -1, ptr %4, align 4
  store i32 1, ptr %9, align 4
  br label %57

20:                                               ; preds = %3
  call void @llvm.lifetime.start.p0(i64 16, ptr %10) #8
  call void @llvm.memcpy.p0.p0.i64(ptr align 8 %10, ptr align 8 @__const._queueobj_shared.converted, i64 16, i1 false)
  call void @llvm.lifetime.start.p0(i64 4, ptr %11) #8
  %21 = load ptr, ptr %8, align 8, !tbaa !3
  %22 = call i32 @idarg_int64_converter(ptr noundef %21, ptr noundef %10)
  store i32 %22, ptr %11, align 4, !tbaa !9
  br label %23

23:                                               ; preds = %20
  call void @llvm.lifetime.start.p0(i64 8, ptr %12) #8
  store ptr %8, ptr %12, align 8, !tbaa !22
  call void @llvm.lifetime.start.p0(i64 8, ptr %13) #8
  %24 = load ptr, ptr %12, align 8, !tbaa !22
  %25 = load ptr, ptr %24, align 8, !tbaa !3
  store ptr %25, ptr %13, align 8, !tbaa !3
  %26 = load ptr, ptr %13, align 8, !tbaa !3
  %27 = icmp ne ptr %26, null
  br i1 %27, label %28, label %31

28:                                               ; preds = %23
  %29 = load ptr, ptr %12, align 8, !tbaa !22
  store ptr null, ptr %29, align 8, !tbaa !3
  %30 = load ptr, ptr %13, align 8, !tbaa !3
  call void @Py_DECREF(ptr noundef %30)
  br label %31

31:                                               ; preds = %28, %23
  call void @llvm.lifetime.end.p0(i64 8, ptr %13) #8
  call void @llvm.lifetime.end.p0(i64 8, ptr %12) #8
  br label %32

32:                                               ; preds = %31
  br label %33

33:                                               ; preds = %32
  %34 = load i32, ptr %11, align 4, !tbaa !9
  %35 = icmp ne i32 %34, 0
  br i1 %35, label %37, label %36

36:                                               ; preds = %33
  store i32 -1, ptr %4, align 4
  store i32 1, ptr %9, align 4
  br label %56

37:                                               ; preds = %33
  call void @llvm.lifetime.start.p0(i64 8, ptr %14) #8
  %38 = getelementptr inbounds nuw %struct.idarg_int64_converter_data, ptr %10, i32 0, i32 1
  %39 = load i64, ptr %38, align 8, !tbaa !13
  %40 = call ptr @_queueid_xid_new(i64 noundef %39)
  store ptr %40, ptr %14, align 8, !tbaa !8
  %41 = load ptr, ptr %14, align 8, !tbaa !8
  %42 = icmp eq ptr %41, null
  br i1 %42, label %43, label %44

43:                                               ; preds = %37
  store i32 -1, ptr %4, align 4
  store i32 1, ptr %9, align 4
  br label %55

44:                                               ; preds = %37
  %45 = load ptr, ptr %7, align 8, !tbaa !66
  %46 = load ptr, ptr %5, align 8, !tbaa !118
  %47 = getelementptr inbounds nuw %struct._ts, ptr %46, i32 0, i32 2
  %48 = load ptr, ptr %47, align 8, !tbaa !120
  %49 = load ptr, ptr %14, align 8, !tbaa !8
  call void @_PyXIData_Init(ptr noundef %45, ptr noundef %48, ptr noundef %49, ptr noundef null, ptr noundef @_queueobj_from_xid)
  br label %50

50:                                               ; preds = %44
  %51 = load ptr, ptr %7, align 8, !tbaa !66
  %52 = getelementptr inbounds nuw %struct._xidata, ptr %51, i32 0, i32 4
  store ptr @_queueid_xid_free, ptr %52, align 8, !tbaa !127
  br label %53

53:                                               ; preds = %50
  br label %54

54:                                               ; preds = %53
  store i32 0, ptr %4, align 4
  store i32 1, ptr %9, align 4
  br label %55

55:                                               ; preds = %54, %43
  call void @llvm.lifetime.end.p0(i64 8, ptr %14) #8
  br label %56

56:                                               ; preds = %55, %36
  call void @llvm.lifetime.end.p0(i64 4, ptr %11) #8
  call void @llvm.lifetime.end.p0(i64 16, ptr %10) #8
  br label %57

57:                                               ; preds = %56, %19
  call void @llvm.lifetime.end.p0(i64 8, ptr %8) #8
  %58 = load i32, ptr %4, align 4
  ret i32 %58
}