; Function Attrs: nounwind uwtable
define internal range(i32 -1, 1) i32 @_queueobj_shared(ptr noundef readonly captures(none) %0, ptr noundef %1, ptr noundef %2) #0 {
  %4 = alloca %struct.idarg_int64_converter_data, align 8
  %5 = tail call ptr @PyObject_GetAttrString(ptr noundef %1, ptr noundef nonnull @.str.55) #6
  %6 = icmp eq ptr %5, null
  br i1 %6, label %39, label %7

7:                                                ; preds = %3
  call void @llvm.lifetime.start.p0(i64 16, ptr nonnull %4) #6
  call void @llvm.memcpy.p0.p0.i64(ptr noundef nonnull align 8 dereferenceable(16) %4, ptr noundef nonnull align 8 dereferenceable(16) @__const._queueobj_shared.converted, i64 16, i1 false)
  %8 = call fastcc i32 @idarg_int64_converter(ptr noundef nonnull %5, ptr noundef nonnull %4)
  %9 = load i32, ptr %5, align 8, !tbaa !55
  %.not.i = icmp sgt i32 %9, -1
  br i1 %.not.i, label %10, label %Py_DECREF.exit

10:                                               ; preds = %7
  %11 = add nsw i32 %9, -1
  store i32 %11, ptr %5, align 8, !tbaa !55
  %12 = icmp eq i32 %11, 0
  br i1 %12, label %13, label %Py_DECREF.exit

13:                                               ; preds = %10
  tail call void @_Py_Dealloc(ptr noundef nonnull %5) #6
  br label %Py_DECREF.exit

Py_DECREF.exit:                                   ; preds = %7, %10, %13
  %.not = icmp eq i32 %8, 0
  br i1 %.not, label %_queueid_xid_new.exit.thread, label %14

14:                                               ; preds = %Py_DECREF.exit
  %15 = getelementptr inbounds nuw i8, ptr %4, i64 8
  %16 = load i64, ptr %15, align 8, !tbaa !43
  %17 = load ptr, ptr getelementptr inbounds nuw (i8, ptr @_globals, i64 8), align 8, !tbaa !20
  %18 = tail call i32 @PyThread_acquire_lock(ptr noundef %17, i32 noundef 1) #6
  %19 = load ptr, ptr getelementptr inbounds nuw (i8, ptr @_globals, i64 16), align 8, !tbaa !39
  %.not12.i.i.i = icmp eq ptr %19, null
  br i1 %.not12.i.i.i, label %_queues_incref.exit.thread.i, label %.lr.ph.i.i.i

.lr.ph.i.i.i:                                     ; preds = %14, %23
  %.014.i.i.i = phi ptr [ %24, %23 ], [ %19, %14 ]
  %20 = getelementptr inbounds nuw i8, ptr %.014.i.i.i, i64 8
  %21 = load i64, ptr %20, align 8, !tbaa !46
  %22 = icmp eq i64 %21, %16
  br i1 %22, label %26, label %23

23:                                               ; preds = %.lr.ph.i.i.i
  %24 = load ptr, ptr %.014.i.i.i, align 8, !tbaa !40
  %.not.i.i.i = icmp eq ptr %24, null
  br i1 %.not.i.i.i, label %_queues_incref.exit.thread.i, label %.lr.ph.i.i.i, !llvm.loop !62

_queues_incref.exit.thread.i:                     ; preds = %23, %14
  %25 = load ptr, ptr getelementptr inbounds nuw (i8, ptr @_globals, i64 8), align 8, !tbaa !20
  tail call void @PyThread_release_lock(ptr noundef %25) #6
  br label %_queueid_xid_new.exit.thread

26:                                               ; preds = %.lr.ph.i.i.i
  %27 = getelementptr inbounds nuw i8, ptr %.014.i.i.i, i64 16
  %28 = load i64, ptr %27, align 8, !tbaa !74
  %29 = add i64 %28, 1
  store i64 %29, ptr %27, align 8, !tbaa !74
  %30 = load ptr, ptr getelementptr inbounds nuw (i8, ptr @_globals, i64 8), align 8, !tbaa !20
  tail call void @PyThread_release_lock(ptr noundef %30) #6
  %31 = tail call ptr @PyMem_RawMalloc(i64 noundef 8) #6
  %32 = icmp eq ptr %31, null
  br i1 %32, label %33, label %35

33:                                               ; preds = %26
  %34 = tail call fastcc i32 @_queues_decref(i64 noundef %16)
  br label %_queueid_xid_new.exit.thread

35:                                               ; preds = %26
  store i64 %16, ptr %31, align 8, !tbaa !89
  %36 = getelementptr inbounds nuw i8, ptr %0, i64 16
  %37 = load ptr, ptr %36, align 8, !tbaa !91
  tail call void @_PyXIData_Init(ptr noundef %2, ptr noundef %37, ptr noundef nonnull %31, ptr noundef null, ptr noundef nonnull @_queueobj_from_xid) #6
  %38 = getelementptr inbounds nuw i8, ptr %2, i64 32
  store ptr @_queueid_xid_free, ptr %38, align 8, !tbaa !100
  br label %_queueid_xid_new.exit.thread

_queueid_xid_new.exit.thread:                     ; preds = %_queues_incref.exit.thread.i, %33, %35, %Py_DECREF.exit
  %.1 = phi i32 [ -1, %Py_DECREF.exit ], [ 0, %35 ], [ -1, %33 ], [ -1, %_queues_incref.exit.thread.i ]
  call void @llvm.lifetime.end.p0(i64 16, ptr nonnull %4) #6
  br label %39

39:                                               ; preds = %3, %_queueid_xid_new.exit.thread
  %.0 = phi i32 [ %.1, %_queueid_xid_new.exit.thread ], [ -1, %3 ]
  ret i32 %.0
}